Certificate:
    Data:
        Version: 3 (0x2)
        Serial Number: 0 (0x0)
    Signature Algorithm: md5WithRSAEncryption
        Issuer: C=RO, ST=Bucharest, L=Bucharest, O=N E T O P I A , OU=N E T O P I A Development Team, CN=mobilpay.ro/emailAddress=support@mobilpay.ro
        Validity
            Not Before: Apr  6 20:16:47 2020 GMT
            Not After : Apr  6 20:16:47 2021 GMT
        Subject: C=RO, ST=Bucharest, L=Bucharest, O=N E T O P I A , OU=N E T O P I A Development Team, CN=mobilpay.ro/emailAddress=support@mobilpay.ro
        Subject Public Key Info:
            Public Key Algorithm: rsaEncryption
                Public-Key: (1024 bit)
                Modulus:
                    00:bc:21:d3:f3:61:12:96:45:b8:ab:e0:85:9f:4d:
                    ef:90:97:6d:ad:39:31:63:42:87:8d:b6:91:c7:c5:
                    29:ba:8f:e5:85:62:09:40:60:dc:c7:39:65:87:75:
                    7b:45:e2:f5:48:b5:40:8d:99:fe:3b:ef:72:1a:c3:
                    64:64:30:8d:aa:c0:a6:bd:d2:f5:ba:30:1c:49:19:
                    1f:cd:59:a2:53:a8:3c:70:59:6d:8a:40:db:c0:48:
                    c8:76:11:71:a4:d7:8c:bb:62:04:6b:e3:a7:0b:b3:
                    96:39:97:78:1a:15:2e:29:c8:68:4d:08:52:93:1e:
                    9f:d3:0b:58:6d:9f:18:c7:5d
                Exponent: 65537 (0x10001)
        X509v3 extensions:
            X509v3 Subject Key Identifier: 
                3D:C9:70:A1:30:6C:73:53:34:1F:96:69:17:4F:5A:32:20:1A:1E:B5
            X509v3 Authority Key Identifier: 
                keyid:3D:C9:70:A1:30:6C:73:53:34:1F:96:69:17:4F:5A:32:20:1A:1E:B5

            X509v3 Basic Constraints: 
                CA:TRUE
    Signature Algorithm: md5WithRSAEncryption
         3c:e3:5a:03:1c:6b:bb:c5:f3:09:1a:32:49:e2:54:cc:2a:e6:
         5b:90:46:a9:71:c8:45:5c:63:fb:29:68:70:d5:60:88:25:45:
         b0:07:f0:d1:5f:d0:8f:e4:6a:2f:e8:09:14:ff:f3:7b:d9:e9:
         1c:b6:7f:92:67:a9:16:40:94:f3:5e:34:b7:9f:73:57:fc:09:
         cf:db:eb:26:88:38:9b:97:6d:81:ac:f7:40:16:22:41:42:ce:
         a3:1d:7e:c9:b3:db:13:fb:47:d5:a5:db:6e:91:7f:0c:5d:b6:
         f4:18:7d:d9:c3:6c:aa:73:73:16:7f:a4:a9:3f:10:e4:ca:38:
         95:b4
-----BEGIN CERTIFICATE-----
MIIDKjCCApOgAwIBAgIBADANBgkqhkiG9w0BAQQFADCBsTELMAkGA1UEBhMCUk8x
EjAQBgNVBAgMCUJ1Y2hhcmVzdDESMBAGA1UEBwwJQnVjaGFyZXN0MRcwFQYDVQQK
DA5OIEUgVCBPIFAgSSBBIDEnMCUGA1UECwweTiBFIFQgTyBQIEkgQSBEZXZlbG9w
bWVudCBUZWFtMRQwEgYDVQQDDAttb2JpbHBheS5ybzEiMCAGCSqGSIb3DQEJARYT
c3VwcG9ydEBtb2JpbHBheS5ybzAeFw0yMDA0MDYyMDE2NDdaFw0yMTA0MDYyMDE2
NDdaMIGxMQswCQYDVQQGEwJSTzESMBAGA1UECAwJQnVjaGFyZXN0MRIwEAYDVQQH
DAlCdWNoYXJlc3QxFzAVBgNVBAoMDk4gRSBUIE8gUCBJIEEgMScwJQYDVQQLDB5O
IEUgVCBPIFAgSSBBIERldmVsb3BtZW50IFRlYW0xFDASBgNVBAMMC21vYmlscGF5
LnJvMSIwIAYJKoZIhvcNAQkBFhNzdXBwb3J0QG1vYmlscGF5LnJvMIGfMA0GCSqG
SIb3DQEBAQUAA4GNADCBiQKBgQC8IdPzYRKWRbir4IWfTe+Ql22tOTFjQoeNtpHH
xSm6j+WFYglAYNzHOWWHdXtF4vVItUCNmf4773Iaw2RkMI2qwKa90vW6MBxJGR/N
WaJTqDxwWW2KQNvASMh2EXGk14y7YgRr46cLs5Y5l3gaFS4pyGhNCFKTHp/TC1ht
nxjHXQIDAQABo1AwTjAdBgNVHQ4EFgQUPclwoTBsc1M0H5ZpF09aMiAaHrUwHwYD
VR0jBBgwFoAUPclwoTBsc1M0H5ZpF09aMiAaHrUwDAYDVR0TBAUwAwEB/zANBgkq
hkiG9w0BAQQFAAOBgQA841oDHGu7xfMJGjJJ4lTMKuZbkEapcchFXGP7KWhw1WCI
JUWwB/DRX9CP5Gov6AkU//N72ekctn+SZ6kWQJTzXjS3n3NX/AnP2+smiDibl22B
rPdAFiJBQs6jHX7Js9sT+0fVpdtukX8MXbb0GH3Zw2yqc3MWf6SpPxDkyjiVtA==
-----END CERTIFICATE-----
